; Function Attrs: nounwind uwtable
define ptr @l_Std_Time_Week_Ordinal_ofFin(ptr noundef %0) local_unnamed_addr #0 {
  %2 = ptrtoint ptr %0 to i64
  %3 = and i64 %2, 1
  %.not = icmp eq i64 %3, 0
  br i1 %.not, label %lean_nat_le.exit, label %4, !prof !13

4:                                                ; preds = %1
  %.not11 = icmp ult ptr %0, inttoptr (i64 3 to ptr)
  br i1 %.not11, label %lean_dec.exit, label %14

lean_nat_le.exit:                                 ; preds = %1
  %5 = tail call zeroext i1 @lean_nat_big_le(ptr noundef nonnull inttoptr (i64 3 to ptr), ptr noundef %0) #5
  br i1 %5, label %lean_nat_to_int.exit, label %6

6:                                                ; preds = %lean_nat_le.exit
  %7 = load i32, ptr %0, align 4, !tbaa !5
  %8 = icmp sgt i32 %7, 1
  br i1 %8, label %9, label %11, !prof !10

9:                                                ; preds = %6
  %10 = add nsw i32 %7, -1
  store i32 %10, ptr %0, align 4, !tbaa !5
  br label %lean_dec.exit

11:                                               ; preds = %6
  %.not.i = icmp eq i32 %7, 0
  br i1 %.not.i, label %lean_dec.exit, label %12

12:                                               ; preds = %11
  tail call void @lean_dec_ref_cold(ptr noundef nonnull %0) #5
  br label %lean_dec.exit

lean_dec.exit:                                    ; preds = %4, %12, %11, %9
  %13 = load ptr, ptr @l_Std_Time_Week_instOfNatOrdinal___closed__1, align 8, !tbaa !11
  br label %lean_nat_to_int.exit

14:                                               ; preds = %4
  %15 = icmp ult ptr %0, inttoptr (i64 4294967296 to ptr)
  br i1 %15, label %lean_nat_to_int.exit, label %16

16:                                               ; preds = %14
  %17 = lshr i64 %2, 1
  %18 = tail call ptr @lean_big_size_t_to_int(i64 noundef %17) #5
  br label %lean_nat_to_int.exit

lean_nat_to_int.exit:                             ; preds = %lean_nat_le.exit, %16, %14, %lean_dec.exit
  %.0 = phi ptr [ %13, %lean_dec.exit ], [ %18, %16 ], [ %0, %14 ], [ %0, %lean_nat_le.exit ]
  ret ptr %.0
}